target datalayout = "e-m:e-p270:32:32-p271:32:32-p272:64:64-i64:64-i128:128-f80:128-n8:16:32:64-S128"
target triple = "x86_64-pc-linux-gnu"

%"class.std::ios_base" = type { ptr, i64, i64, i32, i32, i32, ptr, %"struct.std::ios_base::_Words", [8 x %"struct.std::ios_base::_Words"], i32, ptr, %"class.std::locale" }
%"struct.std::ios_base::_Words" = type { ptr, i64 }
%"class.std::locale" = type { ptr }

@_ZZN5boost6locale4impl8ios_propINS0_8ios_infoEE6get_idEvE2id = linkonce_odr global i32 0, comdat, align 4
@_ZGVZN5boost6locale4impl8ios_propINS0_8ios_infoEE6get_idEvE2id = linkonce_odr global i64 0, comdat, align 8

; Function Attrs: mustprogress uwtable
define linkonce_odr hidden noundef nonnull align 8 dereferenceable(8) ptr @_ZNSt8ios_base5pwordEi(ptr noundef nonnull align 8 dereferenceable(216) %0, i32 noundef %1) #0 comdat align 2 {
  %3 = alloca ptr, align 8
  %4 = alloca i32, align 4
  %5 = alloca ptr, align 8
  store ptr %0, ptr %3, align 8, !tbaa !3
  store i32 %1, ptr %4, align 4, !tbaa !24
  %6 = load ptr, ptr %3, align 8
  call void @llvm.lifetime.start.p0(i64 8, ptr %5) #10
  %7 = load i32, ptr %4, align 4, !tbaa !24
  %8 = getelementptr inbounds nuw %"class.std::ios_base", ptr %6, i32 0, i32 9
  %9 = load i32, ptr %8, align 8, !tbaa !33
  %10 = icmp ult i32 %7, %9
  br i1 %10, label %11, label %17

11:                                               ; preds = %2
  %12 = getelementptr inbounds nuw %"class.std::ios_base", ptr %6, i32 0, i32 10
  %13 = load ptr, ptr %12, align 8, !tbaa !39
  %14 = load i32, ptr %4, align 4, !tbaa !24
  %15 = sext i32 %14 to i64
  %16 = getelementptr inbounds %"struct.std::ios_base::_Words", ptr %13, i64 %15
  br label %20

17:                                               ; preds = %2
  %18 = load i32, ptr %4, align 4, !tbaa !24
  %19 = call noundef nonnull align 8 dereferenceable(16) ptr @_ZNSt8ios_base13_M_grow_wordsEib(ptr noundef nonnull align 8 dereferenceable(216) %6, i32 noundef %18, i1 noundef zeroext false)
  br label %20

20:                                               ; preds = %17, %11
  %21 = phi ptr [ %16, %11 ], [ %19, %17 ]
  store ptr %21, ptr %5, align 8, !tbaa !3
  %22 = load ptr, ptr %5, align 8, !tbaa !3
  %23 = getelementptr inbounds nuw %"struct.std::ios_base::_Words", ptr %22, i32 0, i32 0
  call void @llvm.lifetime.end.p0(i64 8, ptr %5) #10
  ret ptr %23
}

; Function Attrs: mustprogress nounwind uwtable
define linkonce_odr hidden noundef i32 @_ZN5boost6locale4impl8ios_propINS0_8ios_infoEE6get_idEv() #2 comdat align 2 {
  %1 = load atomic i8, ptr @_ZGVZN5boost6locale4impl8ios_propINS0_8ios_infoEE6get_idEvE2id acquire, align 8
  %2 = icmp eq i8 %1, 0
  br i1 %2, label %3, label %8, !prof !26

3:                                                ; preds = %0
  %4 = call i32 @__cxa_guard_acquire(ptr @_ZGVZN5boost6locale4impl8ios_propINS0_8ios_infoEE6get_idEvE2id) #10
  %5 = icmp ne i32 %4, 0
  br i1 %5, label %6, label %8

6:                                                ; preds = %3
  %7 = call noundef i32 @_ZNSt8ios_base6xallocEv() #10
  store i32 %7, ptr @_ZZN5boost6locale4impl8ios_propINS0_8ios_infoEE6get_idEvE2id, align 4, !tbaa !24
  call void @__cxa_guard_release(ptr @_ZGVZN5boost6locale4impl8ios_propINS0_8ios_infoEE6get_idEvE2id) #10
  br label %8

8:                                                ; preds = %6, %3, %0
  %9 = load i32, ptr @_ZZN5boost6locale4impl8ios_propINS0_8ios_infoEE6get_idEvE2id, align 4, !tbaa !24
  ret i32 %9
}

; Function Attrs: mustprogress uwtable
define linkonce_odr hidden noundef ptr @_ZN5boost6locale4impl8ios_propINS0_8ios_infoEE8get_implERSt8ios_base(ptr noundef nonnull align 8 dereferenceable(216) %0) #0 comdat align 2 {
  %2 = alloca ptr, align 8
  store ptr %0, ptr %2, align 8, !tbaa !3
  %3 = load ptr, ptr %2, align 8, !tbaa !3
  %4 = call noundef i32 @_ZN5boost6locale4impl8ios_propINS0_8ios_infoEE6get_idEv()
  %5 = call noundef nonnull align 8 dereferenceable(8) ptr @_ZNSt8ios_base5pwordEi(ptr noundef nonnull align 8 dereferenceable(216) %3, i32 noundef %4)
  %6 = load ptr, ptr %5, align 8, !tbaa !3
  ret ptr %6
}

; Function Attrs: mustprogress uwtable
define linkonce_odr hidden noundef nonnull align 8 dereferenceable(56) ptr @_ZN5boost6locale4impl8ios_propINS0_8ios_infoEE3getERSt8ios_base(ptr noundef nonnull align 8 dereferenceable(216) %0) #0 comdat align 2 {
  %2 = alloca ptr, align 8
  %3 = alloca ptr, align 8
  store ptr %0, ptr %2, align 8, !tbaa !3
  call void @llvm.lifetime.start.p0(i64 8, ptr %3) #10
  %4 = load ptr, ptr %2, align 8, !tbaa !3
  %5 = call noundef ptr @_ZN5boost6locale4impl8ios_propINS0_8ios_infoEE8get_implERSt8ios_base(ptr noundef nonnull align 8 dereferenceable(216) %4)
  store ptr %5, ptr %3, align 8, !tbaa !3
  %6 = load ptr, ptr %3, align 8, !tbaa !3
  %7 = icmp ne ptr %6, null
  br i1 %7, label %8, label %10

8:                                                ; preds = %1
  %9 = load ptr, ptr %3, align 8, !tbaa !3
  br label %13

10:                                               ; preds = %1
  %11 = load ptr, ptr %2, align 8, !tbaa !3
  %12 = call noundef nonnull align 8 dereferenceable(56) ptr @_ZN5boost6locale4impl8ios_propINS0_8ios_infoEE6createERSt8ios_base(ptr noundef nonnull align 8 dereferenceable(216) %11)
  br label %13

13:                                               ; preds = %10, %8
  %14 = phi ptr [ %9, %8 ], [ %12, %10 ]
  call void @llvm.lifetime.end.p0(i64 8, ptr %3) #10
  ret ptr %14
}

; Function Attrs: mustprogress uwtable
define noundef nonnull align 8 dereferenceable(56) ptr @_ZN5boost6locale8ios_info3getERSt8ios_base(ptr noundef nonnull align 8 dereferenceable(216) %0) #0 align 2 {
  %2 = alloca ptr, align 8
  store ptr %0, ptr %2, align 8, !tbaa !3
  %3 = load ptr, ptr %2, align 8, !tbaa !3
  %4 = call noundef nonnull align 8 dereferenceable(56) ptr @_ZN5boost6locale4impl8ios_propINS0_8ios_infoEE3getERSt8ios_base(ptr noundef nonnull align 8 dereferenceable(216) %3)
  ret ptr %4
}