; Function Attrs: mustprogress uwtable
define noundef nonnull align 8 dereferenceable(56) ptr @_ZN5boost6locale8ios_info3getERSt8ios_base(ptr noundef nonnull align 8 dereferenceable(216) %0) local_unnamed_addr #0 align 2 {
  %2 = load atomic i8, ptr @_ZGVZN5boost6locale4impl8ios_propINS0_8ios_infoEE6get_idEvE2id acquire, align 8
  %3 = icmp eq i8 %2, 0
  br i1 %3, label %4, label %_ZN5boost6locale4impl8ios_propINS0_8ios_infoEE6get_idEv.exit.i.i, !prof !29

4:                                                ; preds = %1
  %5 = tail call i32 @__cxa_guard_acquire(ptr nonnull @_ZGVZN5boost6locale4impl8ios_propINS0_8ios_infoEE6get_idEvE2id) #15
  %.not.i.i.i = icmp eq i32 %5, 0
  br i1 %.not.i.i.i, label %_ZN5boost6locale4impl8ios_propINS0_8ios_infoEE6get_idEv.exit.i.i, label %6

6:                                                ; preds = %4
  %7 = tail call noundef i32 @_ZNSt8ios_base6xallocEv() #15
  store i32 %7, ptr @_ZZN5boost6locale4impl8ios_propINS0_8ios_infoEE6get_idEvE2id, align 4, !tbaa !30
  tail call void @__cxa_guard_release(ptr nonnull @_ZGVZN5boost6locale4impl8ios_propINS0_8ios_infoEE6get_idEvE2id) #15
  br label %_ZN5boost6locale4impl8ios_propINS0_8ios_infoEE6get_idEv.exit.i.i

_ZN5boost6locale4impl8ios_propINS0_8ios_infoEE6get_idEv.exit.i.i: ; preds = %6, %4, %1
  %8 = load i32, ptr @_ZZN5boost6locale4impl8ios_propINS0_8ios_infoEE6get_idEvE2id, align 4, !tbaa !30
  %9 = getelementptr inbounds nuw i8, ptr %0, i64 192
  %10 = load i32, ptr %9, align 8, !tbaa !31
  %11 = icmp ult i32 %8, %10
  br i1 %11, label %12, label %17

12:                                               ; preds = %_ZN5boost6locale4impl8ios_propINS0_8ios_infoEE6get_idEv.exit.i.i
  %13 = getelementptr inbounds nuw i8, ptr %0, i64 200
  %14 = load ptr, ptr %13, align 8, !tbaa !37
  %15 = sext i32 %8 to i64
  %16 = getelementptr inbounds %"struct.std::ios_base::_Words", ptr %14, i64 %15
  br label %_ZN5boost6locale4impl8ios_propINS0_8ios_infoEE8get_implERSt8ios_base.exit.i

17:                                               ; preds = %_ZN5boost6locale4impl8ios_propINS0_8ios_infoEE6get_idEv.exit.i.i
  %18 = tail call noundef nonnull align 8 dereferenceable(16) ptr @_ZNSt8ios_base13_M_grow_wordsEib(ptr noundef nonnull align 8 dereferenceable(216) %0, i32 noundef %8, i1 noundef zeroext false)
  br label %_ZN5boost6locale4impl8ios_propINS0_8ios_infoEE8get_implERSt8ios_base.exit.i

_ZN5boost6locale4impl8ios_propINS0_8ios_infoEE8get_implERSt8ios_base.exit.i: ; preds = %17, %12
  %19 = phi ptr [ %16, %12 ], [ %18, %17 ]
  %20 = load ptr, ptr %19, align 8, !tbaa !21
  %.not.i = icmp eq ptr %20, null
  br i1 %.not.i, label %21, label %_ZN5boost6locale4impl8ios_propINS0_8ios_infoEE3getERSt8ios_base.exit

21:                                               ; preds = %_ZN5boost6locale4impl8ios_propINS0_8ios_infoEE8get_implERSt8ios_base.exit.i
  %22 = tail call noundef nonnull align 8 dereferenceable(56) ptr @_ZN5boost6locale4impl8ios_propINS0_8ios_infoEE6createERSt8ios_base(ptr noundef nonnull align 8 dereferenceable(216) %0)
  br label %_ZN5boost6locale4impl8ios_propINS0_8ios_infoEE3getERSt8ios_base.exit

_ZN5boost6locale4impl8ios_propINS0_8ios_infoEE3getERSt8ios_base.exit: ; preds = %_ZN5boost6locale4impl8ios_propINS0_8ios_infoEE8get_implERSt8ios_base.exit.i, %21
  %23 = phi ptr [ %22, %21 ], [ %20, %_ZN5boost6locale4impl8ios_propINS0_8ios_infoEE8get_implERSt8ios_base.exit.i ]
  ret ptr %23
}